; Function Attrs: nounwind sspstrong uwtable
define dso_local void @job_pause(ptr noundef %0) local_unnamed_addr #0 {
  %2 = load atomic i64, ptr @qemu_mutex_lock_func monotonic, align 8
  %3 = inttoptr i64 %2 to ptr
  tail call void %3(ptr noundef nonnull @job_mutex, ptr noundef nonnull @.str.29, i32 noundef 56) #15
  %4 = getelementptr inbounds nuw i8, ptr %0, i64 176
  %5 = load i32, ptr %4, align 8
  %6 = add i32 %5, 1
  store i32 %6, ptr %4, align 8
  %7 = getelementptr inbounds nuw i8, ptr %0, i64 181
  %8 = load i8, ptr %7, align 1, !range !4, !noundef !5
  %9 = trunc nuw i8 %8 to i1
  br i1 %9, label %glib_autoptr_cleanup_QemuLockable.exit, label %10

10:                                               ; preds = %1
  %11 = getelementptr i8, ptr %0, i64 16
  %.val.i.i = load ptr, ptr %11, align 8
  %.not10.i.i = icmp eq ptr %.val.i.i, null
  br i1 %.not10.i.i, label %glib_autoptr_cleanup_QemuLockable.exit, label %12

12:                                               ; preds = %10
  %13 = getelementptr inbounds nuw i8, ptr %0, i64 185
  %14 = load i8, ptr %13, align 1, !range !4, !noundef !5
  %15 = trunc nuw i8 %14 to i1
  br i1 %15, label %glib_autoptr_cleanup_QemuLockable.exit, label %16

16:                                               ; preds = %12
  %17 = getelementptr inbounds nuw i8, ptr %0, i64 180
  %18 = load i8, ptr %17, align 4, !range !4, !noundef !5
  %19 = trunc nuw i8 %18 to i1
  br i1 %19, label %glib_autoptr_cleanup_QemuLockable.exit, label %20

20:                                               ; preds = %16
  %21 = getelementptr inbounds nuw i8, ptr %0, i64 128
  tail call void @timer_del(ptr noundef nonnull %21) #15
  store i8 1, ptr %17, align 4
  tail call void @qemu_mutex_unlock_impl(ptr noundef nonnull @job_mutex, ptr noundef nonnull @.str, i32 noundef 106) #15
  %22 = load ptr, ptr %11, align 8
  tail call void @aio_co_wake(ptr noundef %22) #15
  %23 = load atomic i64, ptr @qemu_mutex_lock_func monotonic, align 8
  %24 = inttoptr i64 %23 to ptr
  tail call void %24(ptr noundef nonnull @job_mutex, ptr noundef nonnull @.str, i32 noundef 101) #15
  br label %glib_autoptr_cleanup_QemuLockable.exit

glib_autoptr_cleanup_QemuLockable.exit:           ; preds = %1, %10, %12, %16, %20
  tail call void @qemu_mutex_unlock_impl(ptr noundef nonnull @job_mutex, ptr noundef nonnull @.str.29, i32 noundef 56) #15
  ret void
}